; Function Attrs: nounwind uwtable
define ptr @EVP_CIPHER_gettable_ctx_params(ptr noundef %0) local_unnamed_addr #0 {
  %.not = icmp eq ptr %0, null
  br i1 %.not, label %10, label %2

2:                                                ; preds = %1
  %3 = getelementptr inbounds nuw i8, ptr %0, i64 264
  %4 = load ptr, ptr %3, align 8, !tbaa !83
  %.not7 = icmp eq ptr %4, null
  br i1 %.not7, label %10, label %5

5:                                                ; preds = %2
  %6 = tail call ptr @EVP_CIPHER_get0_provider(ptr noundef nonnull %0) #10
  %7 = tail call ptr @ossl_provider_ctx(ptr noundef %6) #10
  %8 = load ptr, ptr %3, align 8, !tbaa !83
  %9 = tail call ptr %8(ptr noundef null, ptr noundef %7) #10
  br label %10

10:                                               ; preds = %1, %2, %5
  %.0 = phi ptr [ %9, %5 ], [ null, %2 ], [ null, %1 ]
  ret ptr %.0
}